; Function Attrs: mustprogress uwtable
define dso_local noundef zeroext i1 @_ZN5cmsys31SystemInformationImplementation18QueryOSInformationEv(ptr noundef nonnull align 8 dereferenceable(457) %0) local_unnamed_addr #3 align 2 {
  %2 = alloca %struct.utsname, align 1
  call void @llvm.lifetime.start.p0(i64 390, ptr nonnull %2) #34
  %3 = call i32 @uname(ptr noundef nonnull %2) #34
  %4 = icmp eq i32 %3, 0
  br i1 %4, label %5, label %38

5:                                                ; preds = %1
  %6 = getelementptr inbounds nuw i8, ptr %0, i64 296
  %7 = getelementptr inbounds nuw i8, ptr %0, i64 304
  %8 = load i64, ptr %7, align 8, !tbaa !15
  %9 = call noundef i64 @strlen(ptr noundef nonnull dereferenceable(1) %2) #34
  %10 = call noundef nonnull align 8 dereferenceable(32) ptr @_ZNSt7__cxx1112basic_stringIcSt11char_traitsIcESaIcEE10_M_replaceEmmPKcm(ptr noundef nonnull align 8 dereferenceable(32) %6, i64 noundef 0, i64 noundef %8, ptr noundef nonnull %2, i64 noundef %9)
  %11 = getelementptr inbounds nuw i8, ptr %2, i64 65
  %12 = getelementptr inbounds nuw i8, ptr %0, i64 328
  %13 = getelementptr inbounds nuw i8, ptr %0, i64 336
  %14 = load i64, ptr %13, align 8, !tbaa !15
  %15 = call noundef i64 @strlen(ptr noundef nonnull dereferenceable(1) %11) #34
  %16 = call noundef nonnull align 8 dereferenceable(32) ptr @_ZNSt7__cxx1112basic_stringIcSt11char_traitsIcESaIcEE10_M_replaceEmmPKcm(ptr noundef nonnull align 8 dereferenceable(32) %12, i64 noundef 0, i64 noundef %14, ptr noundef nonnull %11, i64 noundef %15)
  %17 = getelementptr inbounds nuw i8, ptr %2, i64 130
  %18 = getelementptr inbounds nuw i8, ptr %0, i64 360
  %19 = getelementptr inbounds nuw i8, ptr %0, i64 368
  %20 = load i64, ptr %19, align 8, !tbaa !15
  %21 = call noundef i64 @strlen(ptr noundef nonnull dereferenceable(1) %17) #34
  %22 = call noundef nonnull align 8 dereferenceable(32) ptr @_ZNSt7__cxx1112basic_stringIcSt11char_traitsIcESaIcEE10_M_replaceEmmPKcm(ptr noundef nonnull align 8 dereferenceable(32) %18, i64 noundef 0, i64 noundef %20, ptr noundef nonnull %17, i64 noundef %21)
  %23 = getelementptr inbounds nuw i8, ptr %2, i64 195
  %24 = getelementptr inbounds nuw i8, ptr %0, i64 392
  %25 = getelementptr inbounds nuw i8, ptr %0, i64 400
  %26 = load i64, ptr %25, align 8, !tbaa !15
  %27 = call noundef i64 @strlen(ptr noundef nonnull dereferenceable(1) %23) #34
  %28 = call noundef nonnull align 8 dereferenceable(32) ptr @_ZNSt7__cxx1112basic_stringIcSt11char_traitsIcESaIcEE10_M_replaceEmmPKcm(ptr noundef nonnull align 8 dereferenceable(32) %24, i64 noundef 0, i64 noundef %26, ptr noundef nonnull %23, i64 noundef %27)
  %29 = getelementptr inbounds nuw i8, ptr %2, i64 260
  %30 = getelementptr inbounds nuw i8, ptr %0, i64 424
  %31 = getelementptr inbounds nuw i8, ptr %0, i64 432
  %32 = load i64, ptr %31, align 8, !tbaa !15
  %33 = call noundef i64 @strlen(ptr noundef nonnull dereferenceable(1) %29) #34
  %34 = call noundef nonnull align 8 dereferenceable(32) ptr @_ZNSt7__cxx1112basic_stringIcSt11char_traitsIcESaIcEE10_M_replaceEmmPKcm(ptr noundef nonnull align 8 dereferenceable(32) %30, i64 noundef 0, i64 noundef %32, ptr noundef nonnull %29, i64 noundef %33)
  %35 = call noundef i64 @_ZNKSt7__cxx1112basic_stringIcSt11char_traitsIcESaIcEE13find_first_ofEPKcmm(ptr noundef nonnull align 8 dereferenceable(32) %30, ptr noundef nonnull @.str.210, i64 noundef 0, i64 noundef 2) #34
  %.not = icmp eq i64 %35, -1
  br i1 %.not, label %38, label %36

36:                                               ; preds = %5
  %37 = getelementptr inbounds nuw i8, ptr %0, i64 456
  store i8 1, ptr %37, align 8, !tbaa !126
  br label %38

38:                                               ; preds = %5, %36, %1
  call void @llvm.lifetime.end.p0(i64 390, ptr nonnull %2) #34
  ret i1 true
}